; Function Attrs: norecurse nounwind uwtable
define internal void @_ZNK5faiss13IndexFastScan22search_dispatch_implemILb0EEEvlPKflPfPlPKNS_15NormTableScalerE.omp_outlined(ptr noalias nocapture noundef readonly %0, ptr noalias nocapture readnone %1, ptr nocapture noundef nonnull readonly align 4 dereferenceable(4) %2, ptr nocapture noundef nonnull readonly align 8 dereferenceable(8) %3, ptr nocapture noundef nonnull readonly align 8 dereferenceable(8) %4, ptr nocapture noundef nonnull readonly align 8 dereferenceable(8) %5, ptr nocapture noundef nonnull readonly align 8 dereferenceable(8) %6, ptr nocapture noundef nonnull readonly align 4 dereferenceable(4) %7, ptr nocapture noundef nonnull readonly align 8 dereferenceable(8) %8, ptr noundef %9, ptr nocapture noundef nonnull readonly align 8 dereferenceable(8) %10) #16 personality ptr @__gxx_personality_v0 {
  %12 = alloca i32, align 4
  %13 = alloca i32, align 4
  %14 = alloca i32, align 4
  %15 = alloca i32, align 4
  %16 = load i32, ptr %2, align 4
  %17 = icmp sgt i32 %16, 0
  br i1 %17, label %18, label %54

18:                                               ; preds = %11
  %19 = add nsw i32 %16, -1
  store i32 0, ptr %12, align 4
  store i32 %19, ptr %13, align 4
  store i32 1, ptr %14, align 4
  store i32 0, ptr %15, align 4
  %20 = load i32, ptr %0, align 4
  call void @__kmpc_for_static_init_4(ptr nonnull @1, i32 %20, i32 34, ptr nonnull %15, ptr nonnull %12, ptr nonnull %13, ptr nonnull %14, i32 1, i32 1)
  %21 = load i32, ptr %13, align 4
  %22 = call i32 @llvm.smin.i32(i32 %21, i32 %19)
  store i32 %22, ptr %13, align 4
  %23 = load i32, ptr %12, align 4
  %.not33 = icmp sgt i32 %23, %22
  br i1 %.not33, label %._crit_edge, label %.lr.ph

.lr.ph:                                           ; preds = %18
  %24 = getelementptr inbounds i8, ptr %9, i64 8
  %25 = sext i32 %23 to i64
  br label %26

26:                                               ; preds = %.lr.ph, %51
  %indvars.iv = phi i64 [ %25, %.lr.ph ], [ %indvars.iv.next, %51 ]
  %27 = load i64, ptr %3, align 8
  %28 = mul nsw i64 %27, %indvars.iv
  %29 = load i32, ptr %2, align 4
  %30 = sext i32 %29 to i64
  %31 = sdiv i64 %28, %30
  %indvars.iv.next = add nsw i64 %indvars.iv, 1
  %32 = mul nsw i64 %27, %indvars.iv.next
  %33 = sdiv i64 %32, %30
  %34 = load ptr, ptr %4, align 8
  %35 = load i64, ptr %5, align 8
  %36 = mul nsw i64 %35, %31
  %37 = getelementptr inbounds float, ptr %34, i64 %36
  %38 = load ptr, ptr %6, align 8
  %39 = getelementptr inbounds i64, ptr %38, i64 %36
  %40 = load i32, ptr %7, align 4
  %41 = and i32 %40, -2
  %switch = icmp eq i32 %41, 12
  %42 = sub nsw i64 %33, %31
  %43 = load ptr, ptr %8, align 8
  %44 = load i32, ptr %24, align 8
  %45 = sext i32 %44 to i64
  %46 = mul nsw i64 %31, %45
  %47 = getelementptr inbounds float, ptr %43, i64 %46
  %48 = load ptr, ptr %10, align 8
  br i1 %switch, label %49, label %50

49:                                               ; preds = %26
  invoke void @_ZNK5faiss13IndexFastScan16search_implem_12INS_4CMinItiEEEEvlPKflPfPliPKNS_15NormTableScalerE(ptr noundef nonnull align 8 dereferenceable(136) %9, i64 noundef %42, ptr noundef %47, i64 noundef %35, ptr noundef %37, ptr noundef %39, i32 noundef %40, ptr noundef %48)
          to label %51 unwind label %55

50:                                               ; preds = %26
  invoke void @_ZNK5faiss13IndexFastScan16search_implem_14INS_4CMinItiEEEEvlPKflPfPliPKNS_15NormTableScalerE(ptr noundef nonnull align 8 dereferenceable(136) %9, i64 noundef %42, ptr noundef %47, i64 noundef %35, ptr noundef %37, ptr noundef %39, i32 noundef %40, ptr noundef %48)
          to label %51 unwind label %55

51:                                               ; preds = %50, %49
  %52 = load i32, ptr %13, align 4
  %53 = sext i32 %52 to i64
  %.not.not = icmp slt i64 %indvars.iv, %53
  br i1 %.not.not, label %26, label %._crit_edge

._crit_edge:                                      ; preds = %51, %18
  call void @__kmpc_for_static_fini(ptr nonnull @1, i32 %20)
  br label %54

54:                                               ; preds = %._crit_edge, %11
  ret void

55:                                               ; preds = %50, %49
  %56 = landingpad { ptr, i32 }
          catch ptr null
  %57 = extractvalue { ptr, i32 } %56, 0
  call void @__clang_call_terminate(ptr %57) #24
  unreachable
}